target datalayout = "e-m:e-p270:32:32-p271:32:32-p272:64:64-i64:64-i128:128-f80:128-n8:16:32:64-S128"
target triple = "x86_64-unknown-linux-gnu"

%struct.QIODNSResolverLookupData = type { ptr, ptr, i64 }

; Function Attrs: nounwind sspstrong uwtable
define internal void @qio_dns_resolver_lookup_data_free(ptr noundef %opaque) #0 {
entry:
  %opaque.addr = alloca ptr, align 8
  %data = alloca ptr, align 8
  %i = alloca i64, align 8
  store ptr %opaque, ptr %opaque.addr, align 8
  %0 = load ptr, ptr %opaque.addr, align 8
  store ptr %0, ptr %data, align 8
  %1 = load ptr, ptr %data, align 8
  %addr = getelementptr inbounds %struct.QIODNSResolverLookupData, ptr %1, i32 0, i32 0
  %2 = load ptr, ptr %addr, align 8
  call void @qapi_free_SocketAddress(ptr noundef %2)
  store i64 0, ptr %i, align 8
  br label %for.cond

for.cond:                                         ; preds = %for.inc, %entry
  %3 = load i64, ptr %i, align 8
  %4 = load ptr, ptr %data, align 8
  %naddrs = getelementptr inbounds %struct.QIODNSResolverLookupData, ptr %4, i32 0, i32 2
  %5 = load i64, ptr %naddrs, align 8
  %cmp = icmp ult i64 %3, %5
  br i1 %cmp, label %for.body, label %for.end

for.body:                                         ; preds = %for.cond
  %6 = load ptr, ptr %data, align 8
  %addrs = getelementptr inbounds %struct.QIODNSResolverLookupData, ptr %6, i32 0, i32 1
  %7 = load ptr, ptr %addrs, align 8
  %8 = load i64, ptr %i, align 8
  %arrayidx = getelementptr ptr, ptr %7, i64 %8
  %9 = load ptr, ptr %arrayidx, align 8
  call void @qapi_free_SocketAddress(ptr noundef %9)
  br label %for.inc

for.inc:                                          ; preds = %for.body
  %10 = load i64, ptr %i, align 8
  %inc = add i64 %10, 1
  store i64 %inc, ptr %i, align 8
  br label %for.cond, !llvm.loop !8

for.end:                                          ; preds = %for.cond
  %11 = load ptr, ptr %data, align 8
  %addrs1 = getelementptr inbounds %struct.QIODNSResolverLookupData, ptr %11, i32 0, i32 1
  %12 = load ptr, ptr %addrs1, align 8
  call void @g_free(ptr noundef %12)
  %13 = load ptr, ptr %data, align 8
  call void @g_free(ptr noundef %13)
  ret void
}