; Function Attrs: nounwind sspstrong uwtable
define internal void @qio_dns_resolver_lookup_data_free(ptr noundef %opaque) #0 {
entry:
  %0 = load ptr, ptr %opaque, align 8
  tail call void @qapi_free_SocketAddress(ptr noundef %0) #7
  %naddrs = getelementptr inbounds nuw i8, ptr %opaque, i64 16
  %1 = load i64, ptr %naddrs, align 8
  %cmp7.not = icmp eq i64 %1, 0
  br i1 %cmp7.not, label %for.end, label %for.body.lr.ph

for.body.lr.ph:                                   ; preds = %entry
  %addrs = getelementptr inbounds nuw i8, ptr %opaque, i64 8
  br label %for.body

for.body:                                         ; preds = %for.body.lr.ph, %for.body
  %i.08 = phi i64 [ 0, %for.body.lr.ph ], [ %inc, %for.body ]
  %2 = load ptr, ptr %addrs, align 8
  %arrayidx = getelementptr ptr, ptr %2, i64 %i.08
  %3 = load ptr, ptr %arrayidx, align 8
  tail call void @qapi_free_SocketAddress(ptr noundef %3) #7
  %inc = add nuw i64 %i.08, 1
  %4 = load i64, ptr %naddrs, align 8
  %cmp = icmp ult i64 %inc, %4
  br i1 %cmp, label %for.body, label %for.end, !llvm.loop !8

for.end:                                          ; preds = %for.body, %entry
  %addrs1 = getelementptr inbounds nuw i8, ptr %opaque, i64 8
  %5 = load ptr, ptr %addrs1, align 8
  tail call void @g_free(ptr noundef %5) #7
  tail call void @g_free(ptr noundef nonnull %opaque) #7
  ret void
}